target datalayout = "e-m:e-p270:32:32-p271:32:32-p272:64:64-i64:64-i128:128-f80:128-n8:16:32:64-S128"
target triple = "x86_64-pc-linux-gnu"

%"struct.logos::LogosParameters" = type { float, float, float, float, float, i32, i32 }
%"class.logos::Logos" = type { %"class.std::vector", %"class.std::vector", %"struct.logos::LogosParameters", float, float, i32, %"class.std::vector.0" }
%"class.std::vector" = type { %"struct.std::_Vector_base" }
%"struct.std::_Vector_base" = type { %"struct.std::_Vector_base<logos::PointPair *, std::allocator<logos::PointPair *>>::_Vector_impl" }
%"struct.std::_Vector_base<logos::PointPair *, std::allocator<logos::PointPair *>>::_Vector_impl" = type { %"struct.std::_Vector_base<logos::PointPair *, std::allocator<logos::PointPair *>>::_Vector_impl_data" }
%"struct.std::_Vector_base<logos::PointPair *, std::allocator<logos::PointPair *>>::_Vector_impl_data" = type { ptr, ptr, ptr }
%"class.std::vector.0" = type { %"struct.std::_Vector_base.1" }
%"struct.std::_Vector_base.1" = type { %"struct.std::_Vector_base<int, std::allocator<int>>::_Vector_impl" }
%"struct.std::_Vector_base<int, std::allocator<int>>::_Vector_impl" = type { %"struct.std::_Vector_base<int, std::allocator<int>>::_Vector_impl_data" }
%"struct.std::_Vector_base<int, std::allocator<int>>::_Vector_impl_data" = type { ptr, ptr, ptr }

; Function Attrs: mustprogress nounwind uwtable
define linkonce_odr hidden noundef nonnull align 4 dereferenceable(4) ptr @_ZNSt6vectorIiSaIiEEixEm(ptr noundef nonnull align 8 dereferenceable(24) %0, i64 noundef %1) #1 comdat align 2 {
  %3 = alloca ptr, align 8
  %4 = alloca i64, align 8
  store ptr %0, ptr %3, align 8, !tbaa !22
  store i64 %1, ptr %4, align 8, !tbaa !47
  %5 = load ptr, ptr %3, align 8
  %6 = getelementptr inbounds nuw %"struct.std::_Vector_base.1", ptr %5, i32 0, i32 0
  %7 = getelementptr inbounds nuw %"struct.std::_Vector_base<int, std::allocator<int>>::_Vector_impl_data", ptr %6, i32 0, i32 0
  %8 = load ptr, ptr %7, align 8, !tbaa !41
  %9 = load i64, ptr %4, align 8, !tbaa !47
  %10 = getelementptr inbounds nuw i32, ptr %8, i64 %9
  ret ptr %10
}

; Function Attrs: inlinehint mustprogress nounwind uwtable
define internal noundef i32 @_ZL7cvFloorf(float noundef %0) #3 {
  %2 = alloca float, align 4
  store float %0, ptr %2, align 4, !tbaa !46
  %3 = load float, ptr %2, align 4, !tbaa !46
  %4 = call float @llvm.floor.f32(float %3)
  %5 = fptosi float %4 to i32
  ret i32 %5
}

; Function Attrs: mustprogress uwtable
define hidden void @_ZN5logos5Logos9updateBinEf(ptr noundef nonnull align 8 dereferenceable(112) %0, float noundef %1) #0 align 2 {
  %3 = alloca ptr, align 8
  %4 = alloca float, align 4
  %5 = alloca i32, align 4
  store ptr %0, ptr %3, align 8, !tbaa !3
  store float %1, ptr %4, align 4, !tbaa !46
  %6 = load ptr, ptr %3, align 8
  call void @llvm.lifetime.start.p0(i64 4, ptr %5) #13
  %7 = load float, ptr %4, align 4, !tbaa !46
  %8 = getelementptr inbounds nuw %"class.logos::Logos", ptr %6, i32 0, i32 3
  %9 = load float, ptr %8, align 4, !tbaa !24
  %10 = fsub float %7, %9
  %11 = getelementptr inbounds nuw %"class.logos::Logos", ptr %6, i32 0, i32 4
  %12 = load float, ptr %11, align 8, !tbaa !38
  %13 = fdiv float %10, %12
  %14 = call noundef i32 @_ZL7cvFloorf(float noundef %13)
  store i32 %14, ptr %5, align 4, !tbaa !40
  %15 = load i32, ptr %5, align 4, !tbaa !40
  %16 = getelementptr inbounds nuw %"class.logos::Logos", ptr %6, i32 0, i32 5
  %17 = load i32, ptr %16, align 4, !tbaa !39
  %18 = icmp ult i32 %15, %17
  br i1 %18, label %19, label %26

19:                                               ; preds = %2
  %20 = getelementptr inbounds nuw %"class.logos::Logos", ptr %6, i32 0, i32 6
  %21 = load i32, ptr %5, align 4, !tbaa !40
  %22 = zext i32 %21 to i64
  %23 = call noundef nonnull align 4 dereferenceable(4) ptr @_ZNSt6vectorIiSaIiEEixEm(ptr noundef nonnull align 8 dereferenceable(24) %20, i64 noundef %22) #13
  %24 = load i32, ptr %23, align 4, !tbaa !40
  %25 = add nsw i32 %24, 1
  store i32 %25, ptr %23, align 4, !tbaa !40
  br label %35

26:                                               ; preds = %2
  %27 = getelementptr inbounds nuw %"class.logos::Logos", ptr %6, i32 0, i32 6
  %28 = getelementptr inbounds nuw %"class.logos::Logos", ptr %6, i32 0, i32 5
  %29 = load i32, ptr %28, align 4, !tbaa !39
  %30 = sub i32 %29, 1
  %31 = zext i32 %30 to i64
  %32 = call noundef nonnull align 4 dereferenceable(4) ptr @_ZNSt6vectorIiSaIiEEixEm(ptr noundef nonnull align 8 dereferenceable(24) %27, i64 noundef %31) #13
  %33 = load i32, ptr %32, align 4, !tbaa !40
  %34 = add nsw i32 %33, 1
  store i32 %34, ptr %32, align 4, !tbaa !40
  br label %35

35:                                               ; preds = %26, %19
  call void @llvm.lifetime.end.p0(i64 4, ptr %5) #13
  ret void
}