; Function Attrs: mustprogress nofree norecurse nosync nounwind willreturn memory(readwrite, inaccessiblemem: none) uwtable
define hidden void @_ZN5logos5Logos9updateBinEf(ptr noundef nonnull readonly align 8 captures(none) dereferenceable(112) %0, float noundef %1) local_unnamed_addr #7 align 2 {
  %3 = getelementptr inbounds nuw i8, ptr %0, i64 76
  %4 = load float, ptr %3, align 4, !tbaa !9
  %5 = fsub float %1, %4
  %6 = getelementptr inbounds nuw i8, ptr %0, i64 80
  %7 = load float, ptr %6, align 8, !tbaa !24
  %8 = fdiv float %5, %7
  %9 = tail call float @llvm.floor.f32(float %8)
  %10 = fptosi float %9 to i32
  %11 = getelementptr inbounds nuw i8, ptr %0, i64 84
  %12 = load i32, ptr %11, align 4, !tbaa !25
  %13 = icmp ugt i32 %12, %10
  %14 = getelementptr inbounds nuw i8, ptr %0, i64 88
  %15 = add i32 %12, -1
  %.sink = select i1 %13, i32 %10, i32 %15
  %16 = zext i32 %.sink to i64
  %17 = load ptr, ptr %14, align 8, !tbaa !27
  %18 = getelementptr inbounds nuw i32, ptr %17, i64 %16
  %19 = load i32, ptr %18, align 4, !tbaa !7
  %20 = add nsw i32 %19, 1
  store i32 %20, ptr %18, align 4, !tbaa !7
  ret void
}